target datalayout = "e-m:e-p270:32:32-p271:32:32-p272:64:64-i64:64-i128:128-f80:128-n8:16:32:64-S128"
target triple = "x86_64-pc-linux-gnu"

@.str.117 = private unnamed_addr constant [2 x i8] c"1\00", align 1
@.str.118 = private unnamed_addr constant [2 x i8] c"2\00", align 1
@.str.119 = private unnamed_addr constant [2 x i8] c"3\00", align 1

; Function Attrs: mustprogress nounwind uwtable
define hidden noundef ptr @_ZN7testing8internal16GetAnsiColorCodeENS0_10GTestColorE(i32 noundef %0) #6 {
  %2 = alloca ptr, align 8
  %3 = alloca i32, align 4
  store i32 %0, ptr %3, align 4
  %4 = load i32, ptr %3, align 4
  switch i32 %4, label %8 [
    i32 1, label %5
    i32 2, label %6
    i32 3, label %7
  ]

5:                                                ; preds = %1
  store ptr @.str.117, ptr %2, align 8
  br label %9

6:                                                ; preds = %1
  store ptr @.str.118, ptr %2, align 8
  br label %9

7:                                                ; preds = %1
  store ptr @.str.119, ptr %2, align 8
  br label %9

8:                                                ; preds = %1
  store ptr null, ptr %2, align 8
  br label %9

9:                                                ; preds = %8, %7, %6, %5
  %10 = load ptr, ptr %2, align 8
  ret ptr %10
}